; Function Attrs: mustprogress uwtable
define hidden void @_ZN16bound_simplifier5resetEv(ptr noundef nonnull align 8 dereferenceable(3156) %0) local_unnamed_addr #3 align 2 {
  %2 = getelementptr inbounds nuw i8, ptr %0, i64 1320
  tail call void @_ZN16bound_propagator5resetEv(ptr noundef nonnull align 8 dereferenceable(280) %2)
  %3 = getelementptr inbounds nuw i8, ptr %0, i64 3096
  %4 = load ptr, ptr %3, align 8, !tbaa !154
  %.not.i = icmp eq ptr %4, null
  br i1 %.not.i, label %_ZN6vectorIP4exprLb0EjE5resetEv.exit, label %5

5:                                                ; preds = %1
  %6 = getelementptr inbounds i8, ptr %4, i64 -4
  store i32 0, ptr %6, align 4, !tbaa !63
  br label %_ZN6vectorIP4exprLb0EjE5resetEv.exit

_ZN6vectorIP4exprLb0EjE5resetEv.exit:             ; preds = %1, %5
  %7 = getelementptr inbounds nuw i8, ptr %0, i64 3104
  %8 = load ptr, ptr %7, align 8, !tbaa !59
  %.not.i1 = icmp eq ptr %8, null
  br i1 %.not.i1, label %_ZN6vectorIjLb0EjE5resetEv.exit, label %9

9:                                                ; preds = %_ZN6vectorIP4exprLb0EjE5resetEv.exit
  %10 = getelementptr inbounds i8, ptr %8, i64 -4
  store i32 0, ptr %10, align 4, !tbaa !63
  br label %_ZN6vectorIjLb0EjE5resetEv.exit

_ZN6vectorIjLb0EjE5resetEv.exit:                  ; preds = %_ZN6vectorIP4exprLb0EjE5resetEv.exit, %9
  %11 = getelementptr inbounds nuw i8, ptr %0, i64 3112
  %12 = getelementptr inbounds nuw i8, ptr %0, i64 3120
  %13 = load ptr, ptr %12, align 8, !tbaa !154
  %14 = icmp eq ptr %13, null
  br i1 %14, label %_ZN15ref_vector_coreI4expr19ref_manager_wrapperIS0_11ast_managerEE5resetEv.exit, label %_ZNK6vectorIP4exprLb0EjE4sizeEv.exit.i

_ZNK6vectorIP4exprLb0EjE4sizeEv.exit.i:           ; preds = %_ZN6vectorIjLb0EjE5resetEv.exit
  %15 = getelementptr inbounds i8, ptr %13, i64 -4
  %16 = load i32, ptr %15, align 4, !tbaa !63
  %17 = zext i32 %16 to i64
  %18 = getelementptr inbounds nuw ptr, ptr %13, i64 %17
  %.not.i2 = icmp eq i32 %16, 0
  br i1 %.not.i2, label %_ZN15ref_vector_coreI4expr19ref_manager_wrapperIS0_11ast_managerEE13dec_range_refEPKPS0_S7_.exit.thread4.i, label %.lr.ph.i.i

.lr.ph.i.i:                                       ; preds = %_ZNK6vectorIP4exprLb0EjE4sizeEv.exit.i, %_ZN15ref_vector_coreI4expr19ref_manager_wrapperIS0_11ast_managerEE7dec_refEPS0_.exit.i.i
  %.06.i.i = phi ptr [ %27, %_ZN15ref_vector_coreI4expr19ref_manager_wrapperIS0_11ast_managerEE7dec_refEPS0_.exit.i.i ], [ %13, %_ZNK6vectorIP4exprLb0EjE4sizeEv.exit.i ]
  %19 = load ptr, ptr %.06.i.i, align 8, !tbaa !23
  %20 = load ptr, ptr %11, align 8, !tbaa !54
  %.not.i.i.i.i.i = icmp eq ptr %19, null
  br i1 %.not.i.i.i.i.i, label %_ZN15ref_vector_coreI4expr19ref_manager_wrapperIS0_11ast_managerEE7dec_refEPS0_.exit.i.i, label %21

21:                                               ; preds = %.lr.ph.i.i
  %22 = getelementptr inbounds nuw i8, ptr %19, i64 8
  %23 = load i32, ptr %22, align 4, !tbaa !49
  %24 = add i32 %23, -1
  store i32 %24, ptr %22, align 4, !tbaa !49
  %25 = icmp eq i32 %24, 0
  br i1 %25, label %26, label %_ZN15ref_vector_coreI4expr19ref_manager_wrapperIS0_11ast_managerEE7dec_refEPS0_.exit.i.i

26:                                               ; preds = %21
  tail call void @_ZN11ast_manager11delete_nodeEP3ast(ptr noundef nonnull align 8 dereferenceable(976) %20, ptr noundef nonnull %19)
  br label %_ZN15ref_vector_coreI4expr19ref_manager_wrapperIS0_11ast_managerEE7dec_refEPS0_.exit.i.i

_ZN15ref_vector_coreI4expr19ref_manager_wrapperIS0_11ast_managerEE7dec_refEPS0_.exit.i.i: ; preds = %26, %21, %.lr.ph.i.i
  %27 = getelementptr inbounds nuw i8, ptr %.06.i.i, i64 8
  %28 = icmp ult ptr %27, %18
  br i1 %28, label %.lr.ph.i.i, label %_ZN15ref_vector_coreI4expr19ref_manager_wrapperIS0_11ast_managerEE13dec_range_refEPKPS0_S7_.exit.i, !llvm.loop !156

_ZN15ref_vector_coreI4expr19ref_manager_wrapperIS0_11ast_managerEE13dec_range_refEPKPS0_S7_.exit.i: ; preds = %_ZN15ref_vector_coreI4expr19ref_manager_wrapperIS0_11ast_managerEE7dec_refEPS0_.exit.i.i
  %.pre.i = load ptr, ptr %12, align 8, !tbaa !154
  %.not.i.i = icmp eq ptr %.pre.i, null
  br i1 %.not.i.i, label %_ZN15ref_vector_coreI4expr19ref_manager_wrapperIS0_11ast_managerEE5resetEv.exit, label %_ZN15ref_vector_coreI4expr19ref_manager_wrapperIS0_11ast_managerEE13dec_range_refEPKPS0_S7_.exit.thread4.i

_ZN15ref_vector_coreI4expr19ref_manager_wrapperIS0_11ast_managerEE13dec_range_refEPKPS0_S7_.exit.thread4.i: ; preds = %_ZN15ref_vector_coreI4expr19ref_manager_wrapperIS0_11ast_managerEE13dec_range_refEPKPS0_S7_.exit.i, %_ZNK6vectorIP4exprLb0EjE4sizeEv.exit.i
  %29 = phi ptr [ %.pre.i, %_ZN15ref_vector_coreI4expr19ref_manager_wrapperIS0_11ast_managerEE13dec_range_refEPKPS0_S7_.exit.i ], [ %13, %_ZNK6vectorIP4exprLb0EjE4sizeEv.exit.i ]
  %30 = getelementptr inbounds i8, ptr %29, i64 -4
  store i32 0, ptr %30, align 4, !tbaa !63
  br label %_ZN15ref_vector_coreI4expr19ref_manager_wrapperIS0_11ast_managerEE5resetEv.exit

_ZN15ref_vector_coreI4expr19ref_manager_wrapperIS0_11ast_managerEE5resetEv.exit: ; preds = %_ZN6vectorIjLb0EjE5resetEv.exit, %_ZN15ref_vector_coreI4expr19ref_manager_wrapperIS0_11ast_managerEE13dec_range_refEPKPS0_S7_.exit.i, %_ZN15ref_vector_coreI4expr19ref_manager_wrapperIS0_11ast_managerEE13dec_range_refEPKPS0_S7_.exit.thread4.i
  ret void
}